; Function Attrs: mustprogress nounwind uwtable
define dso_local void @_ZN5clang17ObjCInterfaceDecl17setImplementationEPNS_22ObjCImplementationDeclE(ptr noundef nonnull align 8 dereferenceable(128) %0, ptr noundef %1) local_unnamed_addr #0 align 2 {
  %3 = tail call noundef nonnull align 8 dereferenceable(23096) ptr @_ZNK5clang4Decl13getASTContextEv(ptr noundef nonnull align 8 dereferenceable(33) %0) #24
  %4 = getelementptr inbounds nuw i8, ptr %0, i64 120
  %.0.copyload.i.i.i.i = load i64, ptr %4, align 8
  %.not.i.i = icmp eq i64 %.0.copyload.i.i.i.i, 0
  br i1 %.not.i.i, label %5, label %_ZNK5clang17ObjCInterfaceDecl13hasDefinitionEv.exit.i

5:                                                ; preds = %2
  %6 = getelementptr inbounds i8, ptr %0, i64 96
  %7 = load ptr, ptr %6, align 8
  %8 = getelementptr inbounds i8, ptr %7, i64 88
  %9 = tail call noundef ptr @_ZNK5clang12RedeclarableINS_17ObjCInterfaceDeclEE8DeclLink11getPreviousEPKS1_(ptr noundef nonnull align 8 dereferenceable(8) %8, ptr noundef nonnull %7)
  %.0.copyload.i.i.i.pre.i.i = load i64, ptr %4, align 8
  br label %_ZNK5clang17ObjCInterfaceDecl13hasDefinitionEv.exit.i

_ZNK5clang17ObjCInterfaceDecl13hasDefinitionEv.exit.i: ; preds = %5, %2
  %.0.copyload.i.i.i1.i = phi i64 [ %.0.copyload.i.i.i.pre.i.i, %5 ], [ %.0.copyload.i.i.i.i, %2 ]
  %10 = icmp ugt i64 %.0.copyload.i.i.i1.i, 7
  br i1 %10, label %11, label %_ZN5clang17ObjCInterfaceDecl13getDefinitionEv.exit

11:                                               ; preds = %_ZNK5clang17ObjCInterfaceDecl13hasDefinitionEv.exit.i
  %12 = and i64 %.0.copyload.i.i.i1.i, -8
  %13 = inttoptr i64 %12 to ptr
  %14 = load ptr, ptr %13, align 8
  br label %_ZN5clang17ObjCInterfaceDecl13getDefinitionEv.exit

_ZN5clang17ObjCInterfaceDecl13getDefinitionEv.exit: ; preds = %_ZNK5clang17ObjCInterfaceDecl13hasDefinitionEv.exit.i, %11
  %15 = phi ptr [ %14, %11 ], [ null, %_ZNK5clang17ObjCInterfaceDecl13hasDefinitionEv.exit.i ]
  tail call void @_ZN5clang10ASTContext21setObjCImplementationEPNS_17ObjCInterfaceDeclEPNS_22ObjCImplementationDeclE(ptr noundef nonnull align 8 dereferenceable(23096) %3, ptr noundef %15, ptr noundef %1) #23
  ret void
}